; Function Attrs: mustprogress uwtable
define hidden noundef zeroext i1 @_ZN11tbv_manager9intersectERK3tbvS2_RS0_(ptr noundef nonnull align 8 dereferenceable(552) %0, ptr noundef nonnull align 4 dereferenceable(4) %1, ptr noundef nonnull align 4 dereferenceable(4) %2, ptr noundef nonnull align 4 dereferenceable(4) %3) local_unnamed_addr #5 align 2 {
  tail call void @_ZNK24fixed_bit_vector_manager4copyER16fixed_bit_vectorRKS0_(ptr noundef nonnull align 8 dereferenceable(552) %0, ptr noundef nonnull align 4 dereferenceable(4) %3, ptr noundef nonnull align 4 dereferenceable(4) %1)
  %5 = tail call noundef nonnull align 4 dereferenceable(4) ptr @_ZNK24fixed_bit_vector_manager7set_andER16fixed_bit_vectorRKS0_(ptr noundef nonnull align 8 dereferenceable(552) %0, ptr noundef nonnull align 4 dereferenceable(4) %3, ptr noundef nonnull align 4 dereferenceable(4) %2)
  %6 = getelementptr inbounds nuw i8, ptr %0, i64 528
  %7 = load i32, ptr %6, align 8, !tbaa !40
  %8 = tail call i32 @llvm.usub.sat.i32(i32 %7, i32 1)
  %wide.trip.count.i.i = zext i32 %8 to i64
  br label %9

9:                                                ; preds = %10, %4
  %indvars.iv.i.i = phi i64 [ %indvars.iv.next.i.i, %10 ], [ 0, %4 ]
  %exitcond.not.i.i = icmp eq i64 %indvars.iv.i.i, %wide.trip.count.i.i
  br i1 %exitcond.not.i.i, label %.critedge.i.i, label %10

10:                                               ; preds = %9
  %indvars.iv.next.i.i = add nuw nsw i64 %indvars.iv.i.i, 1
  %11 = getelementptr inbounds nuw [1 x i32], ptr %3, i64 0, i64 %indvars.iv.i.i
  %12 = load i32, ptr %11, align 4, !tbaa !17
  %13 = shl i32 %12, 1
  %14 = or i32 %13, %12
  %15 = and i32 %14, -1431655766
  %.not.i.i = icmp eq i32 %15, -1431655766
  br i1 %.not.i.i, label %9, label %_ZNK11tbv_manager7set_andER3tbvRKS0_.exit, !llvm.loop !41

.critedge.i.i:                                    ; preds = %9
  %.not19.i.i = icmp eq i32 %7, 0
  br i1 %.not19.i.i, label %25, label %16

16:                                               ; preds = %.critedge.i.i
  %17 = tail call noundef i32 @_ZNK24fixed_bit_vector_manager9last_wordERK16fixed_bit_vector(ptr noundef nonnull align 8 dereferenceable(552) %0, ptr noundef nonnull align 4 dereferenceable(4) %3)
  %18 = shl i32 %17, 1
  %19 = getelementptr inbounds nuw i8, ptr %0, i64 532
  %20 = load i32, ptr %19, align 4, !tbaa !42
  %21 = xor i32 %20, -1
  %22 = or i32 %18, %21
  %23 = or i32 %22, %17
  %24 = and i32 %23, -1431655766
  %.not20.i.i = icmp eq i32 %24, -1431655766
  br i1 %.not20.i.i, label %25, label %_ZNK11tbv_manager7set_andER3tbvRKS0_.exit

25:                                               ; preds = %16, %.critedge.i.i
  br label %_ZNK11tbv_manager7set_andER3tbvRKS0_.exit

_ZNK11tbv_manager7set_andER3tbvRKS0_.exit:        ; preds = %10, %16, %25
  %.1.i.i = phi i1 [ true, %25 ], [ false, %16 ], [ false, %10 ]
  ret i1 %.1.i.i
}